target datalayout = "e-m:e-p270:32:32-p271:32:32-p272:64:64-i64:64-i128:128-f80:128-n8:16:32:64-S128"
target triple = "x86_64-pc-linux-gnu"

%struct.Vec_Int_t_ = type { i32, i32, ptr }
%struct.Vec_Flt_t_ = type { i32, i32, ptr }
%struct.Dam_Man_t_ = type { ptr, ptr, ptr, ptr, ptr, ptr, ptr, ptr, ptr, ptr, ptr, i64, i32, i32, i32, i32, i32 }
%struct.Hash_IntMan_t_ = type { ptr, ptr, i32 }
%struct.Hash_IntObj_t_ = type { i32, i32, i32, i32 }
%struct.timespec = type { i64, i64 }

@.str.7 = private unnamed_addr constant [58 x i8] c"Final statistics after extracting %6d divisors:          \00", align 1
@.str.8 = private unnamed_addr constant [10 x i8] c"Div%5d : \00", align 1
@.str.9 = private unnamed_addr constant [9 x i8] c"D%-8d = \00", align 1
@.str.10 = private unnamed_addr constant [5 x i8] c"%c%d\00", align 1
@.str.11 = private unnamed_addr constant [5 x i8] c"%8s \00", align 1
@.str.12 = private unnamed_addr constant [5 x i8] c"%c  \00", align 1
@.str.13 = private unnamed_addr constant [7 x i8] c"%8s   \00", align 1
@.str.14 = private unnamed_addr constant [15 x i8] c"Weight %9.2f  \00", align 1
@.str.15 = private unnamed_addr constant [12 x i8] c"Divs =%8d  \00", align 1
@.str.16 = private unnamed_addr constant [12 x i8] c"Ands =%8d  \00", align 1
@.str.17 = private unnamed_addr constant [5 x i8] c"Time\00", align 1
@.str.28 = private unnamed_addr constant [5 x i8] c"%s =\00", align 1
@.str.29 = private unnamed_addr constant [11 x i8] c"%9.2f sec\0A\00", align 1

; Function Attrs: inlinehint nounwind uwtable
define internal ptr @Vec_IntEntryP(ptr noundef %0, i32 noundef %1) #2 {
  %3 = alloca ptr, align 8
  %4 = alloca i32, align 4
  store ptr %0, ptr %3, align 8, !tbaa !3
  store i32 %1, ptr %4, align 4, !tbaa !8
  %5 = load ptr, ptr %3, align 8, !tbaa !3
  %6 = getelementptr inbounds nuw %struct.Vec_Int_t_, ptr %5, i32 0, i32 2
  %7 = load ptr, ptr %6, align 8, !tbaa !15
  %8 = load i32, ptr %4, align 4, !tbaa !8
  %9 = sext i32 %8 to i64
  %10 = getelementptr inbounds i32, ptr %7, i64 %9
  ret ptr %10
}

; Function Attrs: inlinehint nounwind uwtable
define internal i32 @Vec_IntSize(ptr noundef %0) #2 {
  %2 = alloca ptr, align 8
  store ptr %0, ptr %2, align 8, !tbaa !3
  %3 = load ptr, ptr %2, align 8, !tbaa !3
  %4 = getelementptr inbounds nuw %struct.Vec_Int_t_, ptr %3, i32 0, i32 1
  %5 = load i32, ptr %4, align 4, !tbaa !12
  ret i32 %5
}

; Function Attrs: inlinehint nounwind uwtable
define internal ptr @Hash_IntObj(ptr noundef %0, i32 noundef %1) #2 {
  %3 = alloca ptr, align 8
  %4 = alloca i32, align 4
  store ptr %0, ptr %3, align 8, !tbaa !96
  store i32 %1, ptr %4, align 4, !tbaa !8
  %5 = load i32, ptr %4, align 4, !tbaa !8
  %6 = icmp ne i32 %5, 0
  br i1 %6, label %7, label %14

7:                                                ; preds = %2
  %8 = load ptr, ptr %3, align 8, !tbaa !96
  %9 = getelementptr inbounds nuw %struct.Hash_IntMan_t_, ptr %8, i32 0, i32 1
  %10 = load ptr, ptr %9, align 8, !tbaa !97
  %11 = load i32, ptr %4, align 4, !tbaa !8
  %12 = mul nsw i32 4, %11
  %13 = call ptr @Vec_IntEntryP(ptr noundef %10, i32 noundef %12)
  br label %15

14:                                               ; preds = %2
  br label %15

15:                                               ; preds = %14, %7
  %16 = phi ptr [ %13, %7 ], [ null, %14 ]
  ret ptr %16
}

; Function Attrs: inlinehint nounwind uwtable
define internal void @Abc_PrintTime(i32 noundef %0, ptr noundef %1, i64 noundef %2) #2 {
  %4 = alloca i32, align 4
  %5 = alloca ptr, align 8
  %6 = alloca i64, align 8
  store i32 %0, ptr %4, align 4, !tbaa !8
  store ptr %1, ptr %5, align 8, !tbaa !71
  store i64 %2, ptr %6, align 8, !tbaa !150
  %7 = load ptr, ptr %5, align 8, !tbaa !71
  call void (i32, ptr, ...) @Abc_Print(i32 noundef 1, ptr noundef @.str.28, ptr noundef %7)
  %8 = load i64, ptr %6, align 8, !tbaa !150
  %9 = sitofp i64 %8 to double
  %10 = fmul double 1.000000e+00, %9
  %11 = fdiv double %10, 1.000000e+06
  call void (i32, ptr, ...) @Abc_Print(i32 noundef 1, ptr noundef @.str.29, double noundef %11)
  ret void
}

; Function Attrs: inlinehint nounwind uwtable
define internal i64 @Abc_Clock() #2 {
  %1 = alloca i64, align 8
  %2 = alloca %struct.timespec, align 8
  %3 = alloca i32, align 4
  %4 = alloca i64, align 8
  call void @llvm.lifetime.start.p0(i64 16, ptr %2) #13
  %5 = call i32 @clock_gettime(i32 noundef 1, ptr noundef %2) #13
  %6 = icmp slt i32 %5, 0
  br i1 %6, label %7, label %8

7:                                                ; preds = %0
  store i64 -1, ptr %1, align 8
  store i32 1, ptr %3, align 4
  br label %19

8:                                                ; preds = %0
  call void @llvm.lifetime.start.p0(i64 8, ptr %4) #13
  %9 = getelementptr inbounds nuw %struct.timespec, ptr %2, i32 0, i32 0
  %10 = load i64, ptr %9, align 8, !tbaa !173
  %11 = mul nsw i64 %10, 1000000
  store i64 %11, ptr %4, align 8, !tbaa !150
  %12 = getelementptr inbounds nuw %struct.timespec, ptr %2, i32 0, i32 1
  %13 = load i64, ptr %12, align 8, !tbaa !175
  %14 = mul nsw i64 %13, 1000000
  %15 = sdiv i64 %14, 1000000000
  %16 = load i64, ptr %4, align 8, !tbaa !150
  %17 = add nsw i64 %16, %15
  store i64 %17, ptr %4, align 8, !tbaa !150
  %18 = load i64, ptr %4, align 8, !tbaa !150
  store i64 %18, ptr %1, align 8
  store i32 1, ptr %3, align 4
  call void @llvm.lifetime.end.p0(i64 8, ptr %4) #13
  br label %19

19:                                               ; preds = %8, %7
  call void @llvm.lifetime.end.p0(i64 16, ptr %2) #13
  %20 = load i64, ptr %1, align 8
  ret i64 %20
}

; Function Attrs: inlinehint nounwind uwtable
define internal i32 @Hash_IntManEntryNum(ptr noundef %0) #2 {
  %2 = alloca ptr, align 8
  store ptr %0, ptr %2, align 8, !tbaa !96
  %3 = load ptr, ptr %2, align 8, !tbaa !96
  %4 = getelementptr inbounds nuw %struct.Hash_IntMan_t_, ptr %3, i32 0, i32 1
  %5 = load ptr, ptr %4, align 8, !tbaa !97
  %6 = call i32 @Vec_IntSize(ptr noundef %5)
  %7 = sdiv i32 %6, 4
  %8 = sub nsw i32 %7, 1
  ret i32 %8
}

; Function Attrs: inlinehint nounwind uwtable
define internal float @Vec_FltEntry(ptr noundef %0, i32 noundef %1) #2 {
  %3 = alloca ptr, align 8
  %4 = alloca i32, align 4
  store ptr %0, ptr %3, align 8, !tbaa !72
  store i32 %1, ptr %4, align 4, !tbaa !8
  %5 = load ptr, ptr %3, align 8, !tbaa !72
  %6 = getelementptr inbounds nuw %struct.Vec_Flt_t_, ptr %5, i32 0, i32 2
  %7 = load ptr, ptr %6, align 8, !tbaa !73
  %8 = load i32, ptr %4, align 4, !tbaa !8
  %9 = sext i32 %8 to i64
  %10 = getelementptr inbounds float, ptr %7, i64 %9
  %11 = load float, ptr %10, align 4, !tbaa !76
  ret float %11
}

; Function Attrs: inlinehint nounwind uwtable
define internal i32 @Abc_Lit2Var(i32 noundef %0) #2 {
  %2 = alloca i32, align 4
  store i32 %0, ptr %2, align 4, !tbaa !8
  %3 = load i32, ptr %2, align 4, !tbaa !8
  %4 = ashr i32 %3, 1
  ret i32 %4
}

; Function Attrs: inlinehint nounwind uwtable
define internal i32 @Abc_LitIsCompl(i32 noundef %0) #2 {
  %2 = alloca i32, align 4
  store i32 %0, ptr %2, align 4, !tbaa !8
  %3 = load i32, ptr %2, align 4, !tbaa !8
  %4 = and i32 %3, 1
  ret i32 %4
}

; Function Attrs: inlinehint nounwind uwtable
define internal i32 @Hash_IntObjData1(ptr noundef %0, i32 noundef %1) #2 {
  %3 = alloca ptr, align 8
  %4 = alloca i32, align 4
  store ptr %0, ptr %3, align 8, !tbaa !96
  store i32 %1, ptr %4, align 4, !tbaa !8
  %5 = load ptr, ptr %3, align 8, !tbaa !96
  %6 = load i32, ptr %4, align 4, !tbaa !8
  %7 = call ptr @Hash_IntObj(ptr noundef %5, i32 noundef %6)
  %8 = getelementptr inbounds nuw %struct.Hash_IntObj_t_, ptr %7, i32 0, i32 1
  %9 = load i32, ptr %8, align 4, !tbaa !130
  ret i32 %9
}

; Function Attrs: inlinehint nounwind uwtable
define internal i32 @Hash_IntObjData0(ptr noundef %0, i32 noundef %1) #2 {
  %3 = alloca ptr, align 8
  %4 = alloca i32, align 4
  store ptr %0, ptr %3, align 8, !tbaa !96
  store i32 %1, ptr %4, align 4, !tbaa !8
  %5 = load ptr, ptr %3, align 8, !tbaa !96
  %6 = load i32, ptr %4, align 4, !tbaa !8
  %7 = call ptr @Hash_IntObj(ptr noundef %5, i32 noundef %6)
  %8 = getelementptr inbounds nuw %struct.Hash_IntObj_t_, ptr %7, i32 0, i32 0
  %9 = load i32, ptr %8, align 4, !tbaa !129
  ret i32 %9
}

; Function Attrs: nounwind uwtable
define void @Dam_PrintDiv(ptr noundef %0, i32 noundef %1) #0 {
  %3 = alloca ptr, align 8
  %4 = alloca i32, align 4
  %5 = alloca [100 x i8], align 16
  %6 = alloca i32, align 4
  %7 = alloca i32, align 4
  store ptr %0, ptr %3, align 8, !tbaa !80
  store i32 %1, ptr %4, align 4, !tbaa !8
  %8 = load i32, ptr %4, align 4, !tbaa !8
  %9 = icmp eq i32 %8, 0
  br i1 %9, label %10, label %15

10:                                               ; preds = %2
  %11 = load ptr, ptr %3, align 8, !tbaa !80
  %12 = getelementptr inbounds nuw %struct.Dam_Man_t_, ptr %11, i32 0, i32 13
  %13 = load i32, ptr %12, align 4, !tbaa !148
  %14 = call i32 (ptr, ...) @printf(ptr noundef @.str.7, i32 noundef %13)
  br label %65

15:                                               ; preds = %2
  call void @llvm.lifetime.start.p0(i64 100, ptr %5) #13
  call void @llvm.lifetime.start.p0(i64 4, ptr %6) #13
  %16 = load ptr, ptr %3, align 8, !tbaa !80
  %17 = getelementptr inbounds nuw %struct.Dam_Man_t_, ptr %16, i32 0, i32 10
  %18 = load ptr, ptr %17, align 8, !tbaa !88
  %19 = load i32, ptr %4, align 4, !tbaa !8
  %20 = call i32 @Hash_IntObjData0(ptr noundef %18, i32 noundef %19)
  store i32 %20, ptr %6, align 4, !tbaa !8
  call void @llvm.lifetime.start.p0(i64 4, ptr %7) #13
  %21 = load ptr, ptr %3, align 8, !tbaa !80
  %22 = getelementptr inbounds nuw %struct.Dam_Man_t_, ptr %21, i32 0, i32 10
  %23 = load ptr, ptr %22, align 8, !tbaa !88
  %24 = load i32, ptr %4, align 4, !tbaa !8
  %25 = call i32 @Hash_IntObjData1(ptr noundef %23, i32 noundef %24)
  store i32 %25, ptr %7, align 4, !tbaa !8
  %26 = load ptr, ptr %3, align 8, !tbaa !80
  %27 = getelementptr inbounds nuw %struct.Dam_Man_t_, ptr %26, i32 0, i32 13
  %28 = load i32, ptr %27, align 4, !tbaa !148
  %29 = add nsw i32 %28, 1
  %30 = call i32 (ptr, ...) @printf(ptr noundef @.str.8, i32 noundef %29)
  %31 = load i32, ptr %4, align 4, !tbaa !8
  %32 = call i32 (ptr, ...) @printf(ptr noundef @.str.9, i32 noundef %31)
  %33 = getelementptr inbounds [100 x i8], ptr %5, i64 0, i64 0
  %34 = load i32, ptr %6, align 4, !tbaa !8
  %35 = call i32 @Abc_LitIsCompl(i32 noundef %34)
  %36 = icmp ne i32 %35, 0
  %37 = select i1 %36, i32 33, i32 32
  %38 = load i32, ptr %6, align 4, !tbaa !8
  %39 = call i32 @Abc_Lit2Var(i32 noundef %38)
  %40 = call i32 (ptr, ptr, ...) @sprintf(ptr noundef %33, ptr noundef @.str.10, i32 noundef %37, i32 noundef %39) #13
  %41 = getelementptr inbounds [100 x i8], ptr %5, i64 0, i64 0
  %42 = call i32 (ptr, ...) @printf(ptr noundef @.str.11, ptr noundef %41)
  %43 = load i32, ptr %6, align 4, !tbaa !8
  %44 = load i32, ptr %7, align 4, !tbaa !8
  %45 = icmp slt i32 %43, %44
  %46 = select i1 %45, i32 42, i32 43
  %47 = call i32 (ptr, ...) @printf(ptr noundef @.str.12, i32 noundef %46)
  %48 = getelementptr inbounds [100 x i8], ptr %5, i64 0, i64 0
  %49 = load i32, ptr %7, align 4, !tbaa !8
  %50 = call i32 @Abc_LitIsCompl(i32 noundef %49)
  %51 = icmp ne i32 %50, 0
  %52 = select i1 %51, i32 33, i32 32
  %53 = load i32, ptr %7, align 4, !tbaa !8
  %54 = call i32 @Abc_Lit2Var(i32 noundef %53)
  %55 = call i32 (ptr, ptr, ...) @sprintf(ptr noundef %48, ptr noundef @.str.10, i32 noundef %52, i32 noundef %54) #13
  %56 = getelementptr inbounds [100 x i8], ptr %5, i64 0, i64 0
  %57 = call i32 (ptr, ...) @printf(ptr noundef @.str.13, ptr noundef %56)
  %58 = load ptr, ptr %3, align 8, !tbaa !80
  %59 = getelementptr inbounds nuw %struct.Dam_Man_t_, ptr %58, i32 0, i32 5
  %60 = load ptr, ptr %59, align 8, !tbaa !117
  %61 = load i32, ptr %4, align 4, !tbaa !8
  %62 = call float @Vec_FltEntry(ptr noundef %60, i32 noundef %61)
  %63 = fpext float %62 to double
  %64 = call i32 (ptr, ...) @printf(ptr noundef @.str.14, double noundef %63)
  call void @llvm.lifetime.end.p0(i64 4, ptr %7) #13
  call void @llvm.lifetime.end.p0(i64 4, ptr %6) #13
  call void @llvm.lifetime.end.p0(i64 100, ptr %5) #13
  br label %65

65:                                               ; preds = %15, %10
  %66 = load ptr, ptr %3, align 8, !tbaa !80
  %67 = getelementptr inbounds nuw %struct.Dam_Man_t_, ptr %66, i32 0, i32 10
  %68 = load ptr, ptr %67, align 8, !tbaa !88
  %69 = call i32 @Hash_IntManEntryNum(ptr noundef %68)
  %70 = call i32 (ptr, ...) @printf(ptr noundef @.str.15, i32 noundef %69)
  %71 = load ptr, ptr %3, align 8, !tbaa !80
  %72 = getelementptr inbounds nuw %struct.Dam_Man_t_, ptr %71, i32 0, i32 14
  %73 = load i32, ptr %72, align 8, !tbaa !100
  %74 = load ptr, ptr %3, align 8, !tbaa !80
  %75 = getelementptr inbounds nuw %struct.Dam_Man_t_, ptr %74, i32 0, i32 15
  %76 = load i32, ptr %75, align 4, !tbaa !149
  %77 = sub nsw i32 %73, %76
  %78 = call i32 (ptr, ...) @printf(ptr noundef @.str.16, i32 noundef %77)
  %79 = call i64 @Abc_Clock()
  %80 = load ptr, ptr %3, align 8, !tbaa !80
  %81 = getelementptr inbounds nuw %struct.Dam_Man_t_, ptr %80, i32 0, i32 11
  %82 = load i64, ptr %81, align 8, !tbaa !82
  %83 = sub nsw i64 %79, %82
  call void @Abc_PrintTime(i32 noundef 1, ptr noundef @.str.17, i64 noundef %83)
  ret void
}