; Function Attrs: nounwind uwtable
define void @Dam_PrintDiv(ptr noundef readonly captures(none) %0, i32 noundef %1) local_unnamed_addr #0 {
  %3 = alloca %struct.timespec, align 8
  %4 = alloca [100 x i8], align 16
  %5 = icmp eq i32 %1, 0
  br i1 %5, label %6, label %10

6:                                                ; preds = %2
  %7 = getelementptr inbounds nuw i8, ptr %0, i64 100
  %8 = load i32, ptr %7, align 4, !tbaa !137
  %9 = tail call i32 (ptr, ...) @printf(ptr noundef nonnull dereferenceable(1) @.str.7, i32 noundef %8)
  br label %48

10:                                               ; preds = %2
  call void @llvm.lifetime.start.p0(i64 100, ptr nonnull %4) #27
  %11 = getelementptr inbounds nuw i8, ptr %0, i64 80
  %12 = load ptr, ptr %11, align 8, !tbaa !89
  %13 = getelementptr inbounds nuw i8, ptr %12, i64 8
  %14 = load ptr, ptr %13, align 8, !tbaa !90
  %15 = shl nsw i32 %1, 2
  %16 = getelementptr i8, ptr %14, i64 8
  %.val.i.i = load ptr, ptr %16, align 8, !tbaa !10
  %17 = sext i32 %15 to i64
  %18 = getelementptr inbounds i32, ptr %.val.i.i, i64 %17
  %19 = load i32, ptr %18, align 4, !tbaa !120
  %20 = getelementptr inbounds nuw i8, ptr %18, i64 4
  %21 = load i32, ptr %20, align 4, !tbaa !121
  %22 = getelementptr inbounds nuw i8, ptr %0, i64 100
  %23 = load i32, ptr %22, align 4, !tbaa !137
  %24 = add nsw i32 %23, 1
  %25 = tail call i32 (ptr, ...) @printf(ptr noundef nonnull dereferenceable(1) @.str.8, i32 noundef %24)
  %26 = tail call i32 (ptr, ...) @printf(ptr noundef nonnull dereferenceable(1) @.str.9, i32 noundef %1)
  %27 = and i32 %19, 1
  %28 = or disjoint i32 %27, 32
  %29 = ashr i32 %19, 1
  %30 = call i32 (ptr, ptr, ...) @sprintf(ptr noundef nonnull dereferenceable(1) %4, ptr noundef nonnull dereferenceable(1) @.str.10, i32 noundef %28, i32 noundef %29) #27
  %31 = call i32 (ptr, ...) @printf(ptr noundef nonnull dereferenceable(1) @.str.11, ptr noundef nonnull %4)
  %32 = icmp slt i32 %19, %21
  %33 = select i1 %32, i32 42, i32 43
  %34 = call i32 (ptr, ...) @printf(ptr noundef nonnull dereferenceable(1) @.str.12, i32 noundef %33)
  %35 = and i32 %21, 1
  %36 = or disjoint i32 %35, 32
  %37 = ashr i32 %21, 1
  %38 = call i32 (ptr, ptr, ...) @sprintf(ptr noundef nonnull dereferenceable(1) %4, ptr noundef nonnull dereferenceable(1) @.str.10, i32 noundef %36, i32 noundef %37) #27
  %39 = call i32 (ptr, ...) @printf(ptr noundef nonnull dereferenceable(1) @.str.13, ptr noundef nonnull %4)
  %40 = getelementptr inbounds nuw i8, ptr %0, i64 40
  %41 = load ptr, ptr %40, align 8, !tbaa !112
  %42 = getelementptr i8, ptr %41, i64 8
  %.val = load ptr, ptr %42, align 8, !tbaa !62
  %43 = sext i32 %1 to i64
  %44 = getelementptr inbounds float, ptr %.val, i64 %43
  %45 = load float, ptr %44, align 4, !tbaa !65
  %46 = fpext float %45 to double
  %47 = call i32 (ptr, ...) @printf(ptr noundef nonnull dereferenceable(1) @.str.14, double noundef %46)
  call void @llvm.lifetime.end.p0(i64 100, ptr nonnull %4) #27
  br label %48

48:                                               ; preds = %10, %6
  %49 = getelementptr inbounds nuw i8, ptr %0, i64 80
  %50 = load ptr, ptr %49, align 8, !tbaa !89
  %51 = getelementptr i8, ptr %50, i64 8
  %.val20 = load ptr, ptr %51, align 8, !tbaa !90
  %52 = getelementptr i8, ptr %.val20, i64 4
  %.val20.val = load i32, ptr %52, align 4, !tbaa !3
  %53 = sdiv i32 %.val20.val, 4
  %54 = add nsw i32 %53, -1
  %55 = call i32 (ptr, ...) @printf(ptr noundef nonnull dereferenceable(1) @.str.15, i32 noundef %54)
  %56 = getelementptr inbounds nuw i8, ptr %0, i64 104
  %57 = load i32, ptr %56, align 8, !tbaa !94
  %58 = getelementptr inbounds nuw i8, ptr %0, i64 108
  %59 = load i32, ptr %58, align 4, !tbaa !138
  %60 = sub nsw i32 %57, %59
  %61 = call i32 (ptr, ...) @printf(ptr noundef nonnull dereferenceable(1) @.str.16, i32 noundef %60)
  call void @llvm.lifetime.start.p0(i64 16, ptr nonnull %3) #27
  %62 = call i32 @clock_gettime(i32 noundef 1, ptr noundef nonnull %3) #27
  %63 = icmp slt i32 %62, 0
  br i1 %63, label %Abc_Clock.exit, label %64

64:                                               ; preds = %48
  %65 = load i64, ptr %3, align 8, !tbaa !73
  %66 = mul nsw i64 %65, 1000000
  %67 = getelementptr inbounds nuw i8, ptr %3, i64 8
  %68 = load i64, ptr %67, align 8, !tbaa !75
  %69 = sdiv i64 %68, 1000
  %70 = add nsw i64 %69, %66
  br label %Abc_Clock.exit

Abc_Clock.exit:                                   ; preds = %48, %64
  %.0.i = phi i64 [ %70, %64 ], [ -1, %48 ]
  call void @llvm.lifetime.end.p0(i64 16, ptr nonnull %3) #27
  %71 = getelementptr inbounds nuw i8, ptr %0, i64 88
  %72 = load i64, ptr %71, align 8, !tbaa !76
  %73 = sub nsw i64 %.0.i, %72
  call void (i32, ptr, ...) @Abc_Print(i32 poison, ptr noundef nonnull @.str.28, ptr noundef nonnull @.str.17)
  %74 = sitofp i64 %73 to double
  %75 = fdiv double %74, 1.000000e+06
  call void (i32, ptr, ...) @Abc_Print(i32 poison, ptr noundef nonnull @.str.29, double noundef %75)
  ret void
}